; Function Attrs: mustprogress uwtable
define hidden void @_ZNK6google8protobuf8compiler4java30ImmutableMapFieldLiteGenerator12GetBoxedTypeB5cxx11Ev(ptr noalias sret(%"class.std::__cxx11::basic_string") align 8 %agg.result, ptr nocapture noundef nonnull readonly align 8 dereferenceable(64) %this) unnamed_addr #3 align 2 {
entry:
  %name_resolver_ = getelementptr inbounds i8, ptr %this, i64 56
  %0 = load ptr, ptr %name_resolver_, align 8
  %descriptor_ = getelementptr inbounds i8, ptr %this, i64 8
  %1 = load ptr, ptr %descriptor_, align 8
  %call = tail call noundef ptr @_ZNK6google8protobuf15FieldDescriptor12message_typeEv(ptr noundef nonnull align 8 dereferenceable(88) %1)
  tail call void @_ZN6google8protobuf8compiler4java17ClassNameResolver12GetClassNameB5cxx11EPKNS0_10DescriptorEb(ptr sret(%"class.std::__cxx11::basic_string") align 8 %agg.result, ptr noundef nonnull align 8 dereferenceable(112) %0, ptr noundef %call, i1 noundef zeroext true)
  ret void
}